Certificate:
    Data:
        Version: 3 (0x2)
        Serial Number:
            14:45:95:0a:80:c5:1e:7e:7b:39:bc:5e:0c:1e:3a:f7:40:e8:f4:b7
        Signature Algorithm: sha256WithRSAEncryption
        Issuer: CN = localhost
        Validity
            Not Before: Jul 10 08:18:22 2022 GMT
            Not After : Aug  9 08:18:22 2022 GMT
        Subject: CN = localhost
        Subject Public Key Info:
            Public Key Algorithm: rsaEncryption
                RSA Public-Key: (2048 bit)
                Modulus:
                    00:d0:19:1e:ea:27:7e:d8:1b:bf:ab:14:74:b6:d9:
                    03:3c:4a:63:b5:c0:18:f1:fa:d9:27:6b:79:b7:cf:
                    ab:1f:6b:24:fd:50:97:aa:4c:d0:db:dd:29:60:81:
                    df:b0:13:9d:9d:d6:da:c1:9d:c4:b6:de:54:60:35:
                    b4:9a:05:65:ac:88:4d:cb:91:ec:20:69:52:6b:10:
                    ed:69:57:00:9c:9c:16:17:e5:d1:f2:77:f0:24:4d:
                    4f:2a:69:54:7e:c8:a8:d2:b5:73:c7:00:80:31:a1:
                    8e:af:9c:d8:ec:2f:d2:44:07:ee:aa:9c:79:50:fa:
                    4a:4d:ce:b2:09:e7:52:e0:41:d6:e6:82:e6:23:92:
                    1e:ec:7b:87:b5:43:d0:80:ee:11:86:b1:00:49:02:
                    69:7c:52:85:b4:6d:ca:1a:f1:3f:fa:62:f0:a3:0f:
                    c3:26:23:e6:42:67:4d:a5:36:33:23:25:c3:1f:76:
                    2f:c4:01:b7:c7:b8:bd:e4:78:53:87:8b:58:ec:00:
                    e8:fc:a7:46:ef:c2:fe:61:26:63:92:85:2e:8d:1b:
                    41:67:31:26:70:82:0d:77:23:82:f1:60:81:a6:e1:
                    48:74:ed:88:b6:a0:4a:bc:81:6c:f7:ca:ac:14:5d:
                    d3:be:9e:5e:2a:a4:04:07:54:1c:08:1a:b4:c2:30:
                    98:6f
                Exponent: 65537 (0x10001)
        X509v3 extensions:
            X509v3 Subject Key Identifier: 
                15:17:83:5A:6B:8F:CB:2B:4C:DC:65:B1:F1:33:50:C8:1B:EC:28:24
            X509v3 Authority Key Identifier: 
                keyid:15:17:83:5A:6B:8F:CB:2B:4C:DC:65:B1:F1:33:50:C8:1B:EC:28:24

            X509v3 Basic Constraints: critical
                CA:TRUE
    Signature Algorithm: sha256WithRSAEncryption
         35:fb:74:38:cd:69:9e:b7:c9:97:f4:da:41:4a:1d:76:27:6f:
         c0:c7:d3:b1:5e:66:76:f2:c1:68:0c:7c:2c:6b:d9:8d:43:25:
         fa:ee:79:ee:c6:b9:6d:c1:0a:75:67:a3:28:4a:fb:f7:65:95:
         de:9f:53:d3:a0:4e:72:93:c0:47:ed:cd:2a:b5:35:1d:d8:bc:
         54:ee:12:6b:79:db:6c:d9:40:4c:18:c7:af:28:5b:2c:00:02:
         f2:ff:55:63:2a:ce:67:f6:d0:ec:4f:44:5b:74:87:be:ca:26:
         9a:34:9f:5d:64:4e:3b:15:54:73:c3:13:08:04:63:1c:ff:19:
         d8:0f:5e:b2:ed:ad:15:80:b6:81:81:02:41:e3:2e:aa:3d:15:
         17:34:a5:50:92:c9:12:e9:82:7b:3a:c2:eb:69:bc:0d:c4:94:
         c8:7e:b1:35:0c:15:44:7a:5f:0f:1a:b3:85:fe:3a:a6:98:88:
         fa:1d:89:e4:6c:b0:28:dc:91:73:1b:a1:3a:54:4c:5b:59:49:
         63:d1:0d:6d:2b:26:80:b1:84:13:da:47:e3:d7:4f:44:ce:17:
         a4:22:d1:0b:26:86:27:3e:b1:c4:33:b9:13:e0:8f:87:87:17:
         43:a8:15:25:38:cb:3d:b0:e3:71:95:68:1b:33:ae:54:8e:94:
         a1:0d:4a:d3
-----BEGIN CERTIFICATE-----
MIIDCTCCAfGgAwIBAgIUFEWVCoDFHn57ObxeDB4690Do9LcwDQYJKoZIhvcNAQEL
BQAwFDESMBAGA1UEAwwJbG9jYWxob3N0MB4XDTIyMDcxMDA4MTgyMloXDTIyMDgw
OTA4MTgyMlowFDESMBAGA1UEAwwJbG9jYWxob3N0MIIBIjANBgkqhkiG9w0BAQEF
AAOCAQ8AMIIBCgKCAQEA0Bke6id+2Bu/qxR0ttkDPEpjtcAY8frZJ2t5t8+rH2sk
/VCXqkzQ290pYIHfsBOdndbawZ3Ett5UYDW0mgVlrIhNy5HsIGlSaxDtaVcAnJwW
F+XR8nfwJE1PKmlUfsio0rVzxwCAMaGOr5zY7C/SRAfuqpx5UPpKTc6yCedS4EHW
5oLmI5Ie7HuHtUPQgO4RhrEASQJpfFKFtG3KGvE/+mLwow/DJiPmQmdNpTYzIyXD
H3YvxAG3x7i95HhTh4tY7ADo/KdG78L+YSZjkoUujRtBZzEmcIINdyOC8WCBpuFI
dO2ItqBKvIFs98qsFF3Tvp5eKqQEB1QcCBq0wjCYbwIDAQABo1MwUTAdBgNVHQ4E
FgQUFReDWmuPyytM3GWx8TNQyBvsKCQwHwYDVR0jBBgwFoAUFReDWmuPyytM3GWx
8TNQyBvsKCQwDwYDVR0TAQH/BAUwAwEB/zANBgkqhkiG9w0BAQsFAAOCAQEANft0
OM1pnrfJl/TaQUoddidvwMfTsV5mdvLBaAx8LGvZjUMl+u557sa5bcEKdWejKEr7
92WV3p9T06BOcpPAR+3NKrU1Hdi8VO4Sa3nbbNlATBjHryhbLAAC8v9VYyrOZ/bQ
7E9EW3SHvsommjSfXWROOxVUc8MTCARjHP8Z2A9esu2tFYC2gYECQeMuqj0VFzSl
UJLJEumCezrC62m8DcSUyH6xNQwVRHpfDxqzhf46ppiI+h2J5GywKNyRcxuhOlRM
W1lJY9ENbSsmgLGEE9pH49dPRM4XpCLRCyaGJz6xxDO5E+CPh4cXQ6gVJTjLPbDj
cZVoGzOuVI6UoQ1K0w==
-----END CERTIFICATE-----
